target datalayout = "e-m:e-p270:32:32-p271:32:32-p272:64:64-i64:64-i128:128-f80:128-n8:16:32:64-S128"
target triple = "x86_64-pc-linux-gnu"

; Function Attrs: mustprogress uwtable
define i32 @uprv_stableBinarySearch_77(ptr noundef %0, i32 noundef %1, ptr noundef %2, i32 noundef %3, ptr noundef %4, ptr noundef %5) #2 {
  %7 = alloca ptr, align 8
  %8 = alloca i32, align 4
  %9 = alloca ptr, align 8
  %10 = alloca i32, align 4
  %11 = alloca ptr, align 8
  %12 = alloca ptr, align 8
  %13 = alloca i32, align 4
  %14 = alloca i8, align 1
  %15 = alloca i32, align 4
  %16 = alloca i32, align 4
  %17 = alloca i32, align 4
  %18 = alloca i32, align 4
  store ptr %0, ptr %7, align 8, !tbaa !11
  store i32 %1, ptr %8, align 4, !tbaa !9
  store ptr %2, ptr %9, align 8, !tbaa !3
  store i32 %3, ptr %10, align 4, !tbaa !9
  store ptr %4, ptr %11, align 8, !tbaa !3
  store ptr %5, ptr %12, align 8, !tbaa !3
  call void @llvm.lifetime.start.p0(i64 4, ptr %13) #9
  store i32 0, ptr %13, align 4, !tbaa !9
  call void @llvm.lifetime.start.p0(i64 1, ptr %14) #9
  store i8 0, ptr %14, align 1, !tbaa !13
  br label %19

19:                                               ; preds = %52, %6
  %20 = load i32, ptr %8, align 4, !tbaa !9
  %21 = load i32, ptr %13, align 4, !tbaa !9
  %22 = sub nsw i32 %20, %21
  %23 = icmp sge i32 %22, 9
  br i1 %23, label %24, label %53

24:                                               ; preds = %19
  call void @llvm.lifetime.start.p0(i64 4, ptr %15) #9
  %25 = load i32, ptr %13, align 4, !tbaa !9
  %26 = load i32, ptr %8, align 4, !tbaa !9
  %27 = add nsw i32 %25, %26
  %28 = sdiv i32 %27, 2
  store i32 %28, ptr %15, align 4, !tbaa !9
  call void @llvm.lifetime.start.p0(i64 4, ptr %16) #9
  %29 = load ptr, ptr %11, align 8, !tbaa !3
  %30 = load ptr, ptr %12, align 8, !tbaa !3
  %31 = load ptr, ptr %9, align 8, !tbaa !3
  %32 = load ptr, ptr %7, align 8, !tbaa !11
  %33 = load i32, ptr %15, align 4, !tbaa !9
  %34 = load i32, ptr %10, align 4, !tbaa !9
  %35 = mul nsw i32 %33, %34
  %36 = sext i32 %35 to i64
  %37 = getelementptr inbounds i8, ptr %32, i64 %36
  %38 = call noundef i32 %29(ptr noundef %30, ptr noundef %31, ptr noundef %37)
  store i32 %38, ptr %16, align 4, !tbaa !9
  %39 = load i32, ptr %16, align 4, !tbaa !9
  %40 = icmp eq i32 %39, 0
  br i1 %40, label %41, label %44

41:                                               ; preds = %24
  store i8 1, ptr %14, align 1, !tbaa !13
  %42 = load i32, ptr %15, align 4, !tbaa !9
  %43 = add nsw i32 %42, 1
  store i32 %43, ptr %13, align 4, !tbaa !9
  br label %52

44:                                               ; preds = %24
  %45 = load i32, ptr %16, align 4, !tbaa !9
  %46 = icmp slt i32 %45, 0
  br i1 %46, label %47, label %49

47:                                               ; preds = %44
  %48 = load i32, ptr %15, align 4, !tbaa !9
  store i32 %48, ptr %8, align 4, !tbaa !9
  br label %51

49:                                               ; preds = %44
  %50 = load i32, ptr %15, align 4, !tbaa !9
  store i32 %50, ptr %13, align 4, !tbaa !9
  br label %51

51:                                               ; preds = %49, %47
  br label %52

52:                                               ; preds = %51, %41
  call void @llvm.lifetime.end.p0(i64 4, ptr %16) #9
  call void @llvm.lifetime.end.p0(i64 4, ptr %15) #9
  br label %19, !llvm.loop !14

53:                                               ; preds = %19
  br label %54

54:                                               ; preds = %82, %53
  %55 = load i32, ptr %13, align 4, !tbaa !9
  %56 = load i32, ptr %8, align 4, !tbaa !9
  %57 = icmp slt i32 %55, %56
  br i1 %57, label %58, label %83

58:                                               ; preds = %54
  call void @llvm.lifetime.start.p0(i64 4, ptr %17) #9
  %59 = load ptr, ptr %11, align 8, !tbaa !3
  %60 = load ptr, ptr %12, align 8, !tbaa !3
  %61 = load ptr, ptr %9, align 8, !tbaa !3
  %62 = load ptr, ptr %7, align 8, !tbaa !11
  %63 = load i32, ptr %13, align 4, !tbaa !9
  %64 = load i32, ptr %10, align 4, !tbaa !9
  %65 = mul nsw i32 %63, %64
  %66 = sext i32 %65 to i64
  %67 = getelementptr inbounds i8, ptr %62, i64 %66
  %68 = call noundef i32 %59(ptr noundef %60, ptr noundef %61, ptr noundef %67)
  store i32 %68, ptr %17, align 4, !tbaa !9
  %69 = load i32, ptr %17, align 4, !tbaa !9
  %70 = icmp eq i32 %69, 0
  br i1 %70, label %71, label %72

71:                                               ; preds = %58
  store i8 1, ptr %14, align 1, !tbaa !13
  br label %77

72:                                               ; preds = %58
  %73 = load i32, ptr %17, align 4, !tbaa !9
  %74 = icmp slt i32 %73, 0
  br i1 %74, label %75, label %76

75:                                               ; preds = %72
  store i32 5, ptr %18, align 4
  br label %80

76:                                               ; preds = %72
  br label %77

77:                                               ; preds = %76, %71
  %78 = load i32, ptr %13, align 4, !tbaa !9
  %79 = add nsw i32 %78, 1
  store i32 %79, ptr %13, align 4, !tbaa !9
  store i32 0, ptr %18, align 4
  br label %80

80:                                               ; preds = %77, %75
  call void @llvm.lifetime.end.p0(i64 4, ptr %17) #9
  %81 = load i32, ptr %18, align 4
  switch i32 %81, label %94 [
    i32 0, label %82
    i32 5, label %83
  ]

82:                                               ; preds = %80
  br label %54, !llvm.loop !16

83:                                               ; preds = %80, %54
  %84 = load i8, ptr %14, align 1, !tbaa !13
  %85 = icmp ne i8 %84, 0
  br i1 %85, label %86, label %89

86:                                               ; preds = %83
  %87 = load i32, ptr %13, align 4, !tbaa !9
  %88 = sub nsw i32 %87, 1
  br label %92

89:                                               ; preds = %83
  %90 = load i32, ptr %13, align 4, !tbaa !9
  %91 = xor i32 %90, -1
  br label %92

92:                                               ; preds = %89, %86
  %93 = phi i32 [ %88, %86 ], [ %91, %89 ]
  store i32 1, ptr %18, align 4
  call void @llvm.lifetime.end.p0(i64 1, ptr %14) #9
  call void @llvm.lifetime.end.p0(i64 4, ptr %13) #9
  ret i32 %93

94:                                               ; preds = %80
  unreachable
}