; Function Attrs: mustprogress uwtable
define i32 @uprv_stableBinarySearch_77(ptr noundef %0, i32 noundef %1, ptr noundef %2, i32 noundef %3, ptr noundef readonly captures(none) %4, ptr noundef %5) local_unnamed_addr #2 {
  %7 = icmp sgt i32 %1, 8
  br i1 %7, label %.lr.ph, label %.preheader

.preheader:                                       ; preds = %.lr.ph, %6
  %.032.lcssa = phi i8 [ 0, %6 ], [ %.133, %.lr.ph ]
  %.030.lcssa = phi i32 [ 0, %6 ], [ %.131, %.lr.ph ]
  %.029.lcssa = phi i32 [ %1, %6 ], [ %.1, %.lr.ph ]
  %8 = icmp slt i32 %.030.lcssa, %.029.lcssa
  br i1 %8, label %.lr.ph50.preheader, label %.thread

.lr.ph50.preheader:                               ; preds = %.preheader
  %9 = sext i32 %.030.lcssa to i64
  %10 = sext i32 %3 to i64
  br label %.lr.ph50

.lr.ph:                                           ; preds = %6, %.lr.ph
  %.02945 = phi i32 [ %.1, %.lr.ph ], [ %1, %6 ]
  %.03044 = phi i32 [ %.131, %.lr.ph ], [ 0, %6 ]
  %.03243 = phi i8 [ %.133, %.lr.ph ], [ 0, %6 ]
  %11 = add nsw i32 %.02945, %.03044
  %12 = sdiv i32 %11, 2
  %13 = mul nsw i32 %12, %3
  %14 = sext i32 %13 to i64
  %15 = getelementptr inbounds i8, ptr %0, i64 %14
  %16 = tail call noundef i32 %4(ptr noundef %5, ptr noundef %2, ptr noundef %15)
  %17 = icmp eq i32 %16, 0
  %18 = add nsw i32 %12, 1
  %19 = icmp slt i32 %16, 0
  %.030. = select i1 %19, i32 %.03044, i32 %12
  %..029 = select i1 %19, i32 %12, i32 %.02945
  %.133 = select i1 %17, i8 1, i8 %.03243
  %.131 = select i1 %17, i32 %18, i32 %.030.
  %.1 = select i1 %17, i32 %.02945, i32 %..029
  %20 = sub nsw i32 %.1, %.131
  %21 = icmp sgt i32 %20, 8
  br i1 %21, label %.lr.ph, label %.preheader, !llvm.loop !9

.lr.ph50:                                         ; preds = %.lr.ph50.preheader, %28
  %indvars.iv = phi i64 [ %9, %.lr.ph50.preheader ], [ %indvars.iv.next, %28 ]
  %.23448 = phi i8 [ %.032.lcssa, %.lr.ph50.preheader ], [ %.436, %28 ]
  %22 = mul nsw i64 %indvars.iv, %10
  %23 = getelementptr inbounds i8, ptr %0, i64 %22
  %24 = tail call noundef i32 %4(ptr noundef %5, ptr noundef %2, ptr noundef %23)
  %25 = icmp eq i32 %24, 0
  br i1 %25, label %28, label %26

26:                                               ; preds = %.lr.ph50
  %27 = icmp slt i32 %24, 0
  br i1 %27, label %.thread.loopexit.split.loop.exit, label %28

28:                                               ; preds = %26, %.lr.ph50
  %.436 = phi i8 [ %.23448, %26 ], [ 1, %.lr.ph50 ]
  %indvars.iv.next = add nsw i64 %indvars.iv, 1
  %lftr.wideiv = trunc i64 %indvars.iv.next to i32
  %exitcond.not = icmp eq i32 %.029.lcssa, %lftr.wideiv
  br i1 %exitcond.not, label %.thread, label %.lr.ph50

.thread.loopexit.split.loop.exit:                 ; preds = %26
  %29 = trunc nsw i64 %indvars.iv to i32
  br label %.thread

.thread:                                          ; preds = %28, %.thread.loopexit.split.loop.exit, %.preheader
  %.234.lcssa = phi i8 [ %.032.lcssa, %.preheader ], [ %.23448, %.thread.loopexit.split.loop.exit ], [ %.436, %28 ]
  %.2.lcssa = phi i32 [ %.030.lcssa, %.preheader ], [ %29, %.thread.loopexit.split.loop.exit ], [ %.029.lcssa, %28 ]
  %.not = icmp eq i8 %.234.lcssa, 0
  %30 = add nsw i32 %.2.lcssa, -1
  %31 = xor i32 %.2.lcssa, -1
  %32 = select i1 %.not, i32 %31, i32 %30
  ret i32 %32
}